target datalayout = "e-m:e-p270:32:32-p271:32:32-p272:64:64-i64:64-i128:128-f80:128-n8:16:32:64-S128"
target triple = "x86_64-pc-linux-gnu"

%struct._GString = type { ptr, i64, i64 }
%struct._GList = type { ptr, ptr, ptr }
%struct.DeviceCounts = type { ptr, i64, %struct.IOCounts, ptr }
%struct.IOCounts = type { i64, i64, i64, i64 }
%struct.IOLocationCounts = type { i64, %struct.IOCounts }

@.str = private unnamed_addr constant [1 x i8] zeroinitializer, align 1
@rw = internal global i32 3, align 4
@pattern = internal global i8 0, align 1
@source = internal global i8 0, align 1
@devices = internal global ptr null, align 8
@.str.18 = private unnamed_addr constant [11 x i8] c", %lx, %ld\00", align 1
@.str.19 = private unnamed_addr constant [16 x i8] c"Device, Address\00", align 1
@.str.20 = private unnamed_addr constant [15 x i8] c", RCPUs, Reads\00", align 1
@.str.21 = private unnamed_addr constant [17 x i8] c",  WCPUs, Writes\00", align 1
@.str.22 = private unnamed_addr constant [4 x i8] c"off\00", align 1
@.str.23 = private unnamed_addr constant [3 x i8] c"pc\00", align 1
@.str.24 = private unnamed_addr constant [12 x i8] c"%s @ 0x%lx\0A\00", align 1
@.str.25 = private unnamed_addr constant [11 x i8] c"  %s:%08lx\00", align 1

; Function Attrs: inlinehint nounwind sspstrong uwtable
define internal void @g_autoptr_cleanup_gstring_free(ptr noundef %0) #3 {
  %2 = alloca ptr, align 8
  store ptr %0, ptr %2, align 8
  %3 = load ptr, ptr %2, align 8
  %4 = icmp ne ptr %3, null
  br i1 %4, label %5, label %8

5:                                                ; preds = %1
  %6 = load ptr, ptr %2, align 8
  %7 = call ptr @g_string_free(ptr noundef %6, i32 noundef 1)
  br label %8

8:                                                ; preds = %5, %1
  ret void
}

; Function Attrs: inlinehint nounwind sspstrong uwtable
define internal void @glib_autoptr_clear_GString(ptr noundef %0) #3 {
  %2 = alloca ptr, align 8
  store ptr %0, ptr %2, align 8
  %3 = load ptr, ptr %2, align 8
  %4 = icmp ne ptr %3, null
  br i1 %4, label %5, label %7

5:                                                ; preds = %1
  %6 = load ptr, ptr %2, align 8
  call void @g_autoptr_cleanup_gstring_free(ptr noundef %6)
  br label %7

7:                                                ; preds = %5, %1
  ret void
}

; Function Attrs: inlinehint nounwind sspstrong uwtable
define internal void @glib_autoptr_cleanup_GString(ptr noundef %0) #3 {
  %2 = alloca ptr, align 8
  store ptr %0, ptr %2, align 8
  %3 = load ptr, ptr %2, align 8
  %4 = load ptr, ptr %3, align 8
  call void @glib_autoptr_clear_GString(ptr noundef %4)
  ret void
}

; Function Attrs: nounwind sspstrong uwtable
define internal void @fmt_iocount_record(ptr noundef %0, ptr noundef %1) #0 {
  %3 = alloca ptr, align 8
  %4 = alloca ptr, align 8
  store ptr %0, ptr %3, align 8
  store ptr %1, ptr %4, align 8
  %5 = call zeroext i1 @track_reads()
  br i1 %5, label %6, label %14

6:                                                ; preds = %2
  %7 = load ptr, ptr %3, align 8
  %8 = load ptr, ptr %4, align 8
  %9 = getelementptr inbounds nuw %struct.IOCounts, ptr %8, i32 0, i32 0
  %10 = load i64, ptr %9, align 8
  %11 = load ptr, ptr %4, align 8
  %12 = getelementptr inbounds nuw %struct.IOCounts, ptr %11, i32 0, i32 2
  %13 = load i64, ptr %12, align 8
  call void (ptr, ptr, ...) @g_string_append_printf(ptr noundef %7, ptr noundef @.str.18, i64 noundef %10, i64 noundef %13)
  br label %14

14:                                               ; preds = %6, %2
  %15 = call zeroext i1 @track_writes()
  br i1 %15, label %16, label %24

16:                                               ; preds = %14
  %17 = load ptr, ptr %3, align 8
  %18 = load ptr, ptr %4, align 8
  %19 = getelementptr inbounds nuw %struct.IOCounts, ptr %18, i32 0, i32 1
  %20 = load i64, ptr %19, align 8
  %21 = load ptr, ptr %4, align 8
  %22 = getelementptr inbounds nuw %struct.IOCounts, ptr %21, i32 0, i32 3
  %23 = load i64, ptr %22, align 8
  call void (ptr, ptr, ...) @g_string_append_printf(ptr noundef %17, ptr noundef @.str.18, i64 noundef %20, i64 noundef %23)
  br label %24

24:                                               ; preds = %16, %14
  ret void
}

; Function Attrs: inlinehint nounwind sspstrong uwtable
define internal ptr @g_string_append_c_inline(ptr noundef %0, i8 noundef signext %1) #3 {
  %3 = alloca ptr, align 8
  %4 = alloca i8, align 1
  store ptr %0, ptr %3, align 8
  store i8 %1, ptr %4, align 1
  %5 = load ptr, ptr %3, align 8
  %6 = getelementptr inbounds nuw %struct._GString, ptr %5, i32 0, i32 1
  %7 = load i64, ptr %6, align 8
  %8 = add i64 %7, 1
  %9 = load ptr, ptr %3, align 8
  %10 = getelementptr inbounds nuw %struct._GString, ptr %9, i32 0, i32 2
  %11 = load i64, ptr %10, align 8
  %12 = icmp ult i64 %8, %11
  br i1 %12, label %13, label %30

13:                                               ; preds = %2
  %14 = load i8, ptr %4, align 1
  %15 = load ptr, ptr %3, align 8
  %16 = getelementptr inbounds nuw %struct._GString, ptr %15, i32 0, i32 0
  %17 = load ptr, ptr %16, align 8
  %18 = load ptr, ptr %3, align 8
  %19 = getelementptr inbounds nuw %struct._GString, ptr %18, i32 0, i32 1
  %20 = load i64, ptr %19, align 8
  %21 = add i64 %20, 1
  store i64 %21, ptr %19, align 8
  %22 = getelementptr inbounds nuw i8, ptr %17, i64 %20
  store i8 %14, ptr %22, align 1
  %23 = load ptr, ptr %3, align 8
  %24 = getelementptr inbounds nuw %struct._GString, ptr %23, i32 0, i32 0
  %25 = load ptr, ptr %24, align 8
  %26 = load ptr, ptr %3, align 8
  %27 = getelementptr inbounds nuw %struct._GString, ptr %26, i32 0, i32 1
  %28 = load i64, ptr %27, align 8
  %29 = getelementptr inbounds nuw i8, ptr %25, i64 %28
  store i8 0, ptr %29, align 1
  br label %34

30:                                               ; preds = %2
  %31 = load ptr, ptr %3, align 8
  %32 = load i8, ptr %4, align 1
  %33 = call ptr @g_string_insert_c(ptr noundef %31, i64 noundef -1, i8 noundef signext %32)
  br label %34

34:                                               ; preds = %30, %13
  %35 = load ptr, ptr %3, align 8
  ret ptr %35
}

; Function Attrs: inlinehint nounwind sspstrong uwtable
define internal zeroext i1 @track_writes() #3 {
  %1 = load i32, ptr @rw, align 4
  %2 = icmp eq i32 %1, 3
  br i1 %2, label %6, label %3

3:                                                ; preds = %0
  %4 = load i32, ptr @rw, align 4
  %5 = icmp eq i32 %4, 2
  br label %6

6:                                                ; preds = %3, %0
  %7 = phi i1 [ true, %0 ], [ %5, %3 ]
  ret i1 %7
}

; Function Attrs: inlinehint nounwind sspstrong uwtable
define internal zeroext i1 @track_reads() #3 {
  %1 = load i32, ptr @rw, align 4
  %2 = icmp eq i32 %1, 3
  br i1 %2, label %6, label %3

3:                                                ; preds = %0
  %4 = load i32, ptr @rw, align 4
  %5 = icmp eq i32 %4, 1
  br label %6

6:                                                ; preds = %3, %0
  %7 = phi i1 [ true, %0 ], [ %5, %3 ]
  ret i1 %7
}

; Function Attrs: nounwind sspstrong uwtable
define internal void @plugin_exit(i64 noundef %0, ptr noundef %1) #0 {
  %3 = alloca i64, align 8
  %4 = alloca ptr, align 8
  %5 = alloca ptr, align 8
  %6 = alloca ptr, align 8
  %7 = alloca ptr, align 8
  %8 = alloca ptr, align 8
  %9 = alloca ptr, align 8
  %10 = alloca ptr, align 8
  %11 = alloca ptr, align 8
  %12 = alloca ptr, align 8
  store i64 %0, ptr %3, align 8
  store ptr %1, ptr %4, align 8
  call void @llvm.lifetime.start.p0(i64 8, ptr %5) #9
  %13 = call ptr @g_string_new(ptr noundef @.str)
  store ptr %13, ptr %5, align 8
  call void @llvm.lifetime.start.p0(i64 8, ptr %6) #9
  store ptr null, ptr %6, align 8, !annotation !3
  %14 = load i8, ptr @pattern, align 1, !range !6, !noundef !7
  %15 = trunc i8 %14 to i1
  br i1 %15, label %31, label %16

16:                                               ; preds = %2
  %17 = load i8, ptr @source, align 1, !range !6, !noundef !7
  %18 = trunc i8 %17 to i1
  br i1 %18, label %31, label %19

19:                                               ; preds = %16
  %20 = load ptr, ptr %5, align 8
  call void (ptr, ptr, ...) @g_string_printf(ptr noundef %20, ptr noundef @.str.19)
  %21 = call zeroext i1 @track_reads()
  br i1 %21, label %22, label %24

22:                                               ; preds = %19
  %23 = load ptr, ptr %5, align 8
  call void (ptr, ptr, ...) @g_string_append_printf(ptr noundef %23, ptr noundef @.str.20)
  br label %24

24:                                               ; preds = %22, %19
  %25 = call zeroext i1 @track_writes()
  br i1 %25, label %26, label %28

26:                                               ; preds = %24
  %27 = load ptr, ptr %5, align 8
  call void (ptr, ptr, ...) @g_string_append_printf(ptr noundef %27, ptr noundef @.str.21)
  br label %28

28:                                               ; preds = %26, %24
  %29 = load ptr, ptr %5, align 8
  %30 = call ptr @g_string_append_c_inline(ptr noundef %29, i8 noundef signext 10)
  br label %31

31:                                               ; preds = %28, %16, %2
  %32 = load ptr, ptr @devices, align 8
  %33 = call ptr @g_hash_table_get_values(ptr noundef %32)
  store ptr %33, ptr %6, align 8
  %34 = load ptr, ptr %6, align 8
  %35 = icmp ne ptr %34, null
  br i1 %35, label %36, label %106

36:                                               ; preds = %31
  %37 = load ptr, ptr %6, align 8
  %38 = icmp ne ptr %37, null
  br i1 %38, label %39, label %44

39:                                               ; preds = %36
  %40 = load ptr, ptr %6, align 8
  %41 = getelementptr inbounds nuw %struct._GList, ptr %40, i32 0, i32 1
  %42 = load ptr, ptr %41, align 8
  %43 = icmp ne ptr %42, null
  br i1 %43, label %45, label %106

44:                                               ; preds = %36
  br i1 false, label %45, label %106

45:                                               ; preds = %44, %39
  call void @llvm.lifetime.start.p0(i64 8, ptr %7) #9
  store ptr null, ptr %7, align 8, !annotation !3
  %46 = load ptr, ptr %6, align 8
  %47 = call ptr @g_list_sort(ptr noundef %46, ptr noundef @sort_cmp)
  store ptr %47, ptr %7, align 8
  br label %48

48:                                               ; preds = %100, %45
  %49 = load ptr, ptr %7, align 8
  %50 = icmp ne ptr %49, null
  br i1 %50, label %51, label %104

51:                                               ; preds = %48
  call void @llvm.lifetime.start.p0(i64 8, ptr %8) #9
  %52 = load ptr, ptr %7, align 8
  %53 = getelementptr inbounds nuw %struct._GList, ptr %52, i32 0, i32 0
  %54 = load ptr, ptr %53, align 8
  store ptr %54, ptr %8, align 8
  %55 = load ptr, ptr %8, align 8
  %56 = getelementptr inbounds nuw %struct.DeviceCounts, ptr %55, i32 0, i32 3
  %57 = load ptr, ptr %56, align 8
  %58 = icmp ne ptr %57, null
  br i1 %58, label %59, label %97

59:                                               ; preds = %51
  call void @llvm.lifetime.start.p0(i64 8, ptr %9) #9
  %60 = load ptr, ptr %8, align 8
  %61 = getelementptr inbounds nuw %struct.DeviceCounts, ptr %60, i32 0, i32 3
  %62 = load ptr, ptr %61, align 8
  %63 = call ptr @g_hash_table_get_values(ptr noundef %62)
  store ptr %63, ptr %9, align 8
  call void @llvm.lifetime.start.p0(i64 8, ptr %10) #9
  %64 = load ptr, ptr %9, align 8
  %65 = call ptr @g_list_sort(ptr noundef %64, ptr noundef @sort_loc)
  store ptr %65, ptr %10, align 8
  call void @llvm.lifetime.start.p0(i64 8, ptr %11) #9
  %66 = load i8, ptr @pattern, align 1, !range !6, !noundef !7
  %67 = trunc i8 %66 to i1
  %68 = select i1 %67, ptr @.str.22, ptr @.str.23
  store ptr %68, ptr %11, align 8
  %69 = load ptr, ptr %5, align 8
  %70 = load ptr, ptr %8, align 8
  %71 = getelementptr inbounds nuw %struct.DeviceCounts, ptr %70, i32 0, i32 0
  %72 = load ptr, ptr %71, align 8
  %73 = load ptr, ptr %8, align 8
  %74 = getelementptr inbounds nuw %struct.DeviceCounts, ptr %73, i32 0, i32 1
  %75 = load i64, ptr %74, align 8
  call void (ptr, ptr, ...) @g_string_append_printf(ptr noundef %69, ptr noundef @.str.24, ptr noundef %72, i64 noundef %75)
  br label %76

76:                                               ; preds = %79, %59
  %77 = load ptr, ptr %10, align 8
  %78 = icmp ne ptr %77, null
  br i1 %78, label %79, label %96

79:                                               ; preds = %76
  call void @llvm.lifetime.start.p0(i64 8, ptr %12) #9
  %80 = load ptr, ptr %10, align 8
  %81 = getelementptr inbounds nuw %struct._GList, ptr %80, i32 0, i32 0
  %82 = load ptr, ptr %81, align 8
  store ptr %82, ptr %12, align 8
  %83 = load ptr, ptr %5, align 8
  %84 = load ptr, ptr %11, align 8
  %85 = load ptr, ptr %12, align 8
  %86 = getelementptr inbounds nuw %struct.IOLocationCounts, ptr %85, i32 0, i32 0
  %87 = load i64, ptr %86, align 8
  call void (ptr, ptr, ...) @g_string_append_printf(ptr noundef %83, ptr noundef @.str.25, ptr noundef %84, i64 noundef %87)
  %88 = load ptr, ptr %5, align 8
  %89 = load ptr, ptr %12, align 8
  %90 = getelementptr inbounds nuw %struct.IOLocationCounts, ptr %89, i32 0, i32 1
  call void @fmt_iocount_record(ptr noundef %88, ptr noundef %90)
  %91 = load ptr, ptr %5, align 8
  %92 = call ptr @g_string_append_c_inline(ptr noundef %91, i8 noundef signext 10)
  %93 = load ptr, ptr %10, align 8
  %94 = getelementptr inbounds nuw %struct._GList, ptr %93, i32 0, i32 1
  %95 = load ptr, ptr %94, align 8
  store ptr %95, ptr %10, align 8
  call void @llvm.lifetime.end.p0(i64 8, ptr %12) #9
  br label %76, !llvm.loop !9

96:                                               ; preds = %76
  call void @llvm.lifetime.end.p0(i64 8, ptr %11) #9
  call void @llvm.lifetime.end.p0(i64 8, ptr %10) #9
  call void @llvm.lifetime.end.p0(i64 8, ptr %9) #9
  br label %100

97:                                               ; preds = %51
  %98 = load ptr, ptr %5, align 8
  %99 = load ptr, ptr %8, align 8
  call void @fmt_dev_record(ptr noundef %98, ptr noundef %99)
  br label %100

100:                                              ; preds = %97, %96
  %101 = load ptr, ptr %7, align 8
  %102 = getelementptr inbounds nuw %struct._GList, ptr %101, i32 0, i32 1
  %103 = load ptr, ptr %102, align 8
  store ptr %103, ptr %7, align 8
  call void @llvm.lifetime.end.p0(i64 8, ptr %8) #9
  br label %48, !llvm.loop !10

104:                                              ; preds = %48
  %105 = load ptr, ptr %7, align 8
  call void @g_list_free(ptr noundef %105)
  call void @llvm.lifetime.end.p0(i64 8, ptr %7) #9
  br label %106

106:                                              ; preds = %104, %44, %39, %31
  %107 = load ptr, ptr %5, align 8
  %108 = getelementptr inbounds nuw %struct._GString, ptr %107, i32 0, i32 0
  %109 = load ptr, ptr %108, align 8
  call void @qemu_plugin_outs(ptr noundef %109)
  call void @llvm.lifetime.end.p0(i64 8, ptr %6) #9
  call void @glib_autoptr_cleanup_GString(ptr noundef %5)
  call void @llvm.lifetime.end.p0(i64 8, ptr %5) #9
  ret void
}