; Function Attrs: nounwind sspstrong uwtable
define internal void @plugin_exit(i64 %0, ptr readnone captures(none) %1) #0 {
  %3 = tail call ptr @g_string_new(ptr noundef nonnull @.str) #7
  %4 = load i8, ptr @pattern, align 1, !range !5, !noundef !6
  %5 = trunc nuw i8 %4 to i1
  br i1 %5, label %g_string_append_c_inline.exit, label %6

6:                                                ; preds = %2
  %7 = load i8, ptr @source, align 1, !range !5, !noundef !6
  %8 = trunc nuw i8 %7 to i1
  br i1 %8, label %g_string_append_c_inline.exit, label %9

9:                                                ; preds = %6
  tail call void (ptr, ptr, ...) @g_string_printf(ptr noundef %3, ptr noundef nonnull @.str.19) #7
  %10 = load i32, ptr @rw, align 4
  %11 = and i32 %10, -3
  %12 = icmp eq i32 %11, 1
  br i1 %12, label %13, label %14

13:                                               ; preds = %9
  tail call void (ptr, ptr, ...) @g_string_append_printf(ptr noundef %3, ptr noundef nonnull @.str.20) #7
  %.pre = load i32, ptr @rw, align 4
  br label %14

14:                                               ; preds = %13, %9
  %15 = phi i32 [ %.pre, %13 ], [ %10, %9 ]
  %16 = and i32 %15, -2
  %17 = icmp eq i32 %16, 2
  br i1 %17, label %18, label %19

18:                                               ; preds = %14
  tail call void (ptr, ptr, ...) @g_string_append_printf(ptr noundef %3, ptr noundef nonnull @.str.21) #7
  br label %19

19:                                               ; preds = %18, %14
  %20 = getelementptr inbounds nuw i8, ptr %3, i64 8
  %21 = load i64, ptr %20, align 8
  %22 = add i64 %21, 1
  %23 = getelementptr inbounds nuw i8, ptr %3, i64 16
  %24 = load i64, ptr %23, align 8
  %25 = icmp ult i64 %22, %24
  br i1 %25, label %26, label %32

26:                                               ; preds = %19
  %27 = load ptr, ptr %3, align 8
  store i64 %22, ptr %20, align 8
  %28 = getelementptr inbounds nuw i8, ptr %27, i64 %21
  store i8 10, ptr %28, align 1
  %29 = load ptr, ptr %3, align 8
  %30 = load i64, ptr %20, align 8
  %31 = getelementptr inbounds nuw i8, ptr %29, i64 %30
  store i8 0, ptr %31, align 1
  br label %g_string_append_c_inline.exit

32:                                               ; preds = %19
  %33 = tail call ptr @g_string_insert_c(ptr noundef nonnull %3, i64 noundef -1, i8 noundef signext 10) #7
  br label %g_string_append_c_inline.exit

g_string_append_c_inline.exit:                    ; preds = %32, %26, %6, %2
  %34 = load ptr, ptr @devices, align 8
  %35 = tail call ptr @g_hash_table_get_values(ptr noundef %34) #7
  %.not = icmp eq ptr %35, null
  br i1 %.not, label %glib_autoptr_cleanup_GString.exit, label %36

36:                                               ; preds = %g_string_append_c_inline.exit
  %37 = getelementptr inbounds nuw i8, ptr %35, i64 8
  %38 = load ptr, ptr %37, align 8
  %.not24 = icmp eq ptr %38, null
  br i1 %.not24, label %glib_autoptr_cleanup_GString.exit, label %39

39:                                               ; preds = %36
  %40 = tail call ptr @g_list_sort(ptr noundef nonnull %35, ptr noundef nonnull @sort_cmp) #7
  %.not2539 = icmp eq ptr %40, null
  br i1 %.not2539, label %._crit_edge, label %.lr.ph41

.lr.ph41:                                         ; preds = %39
  %41 = getelementptr inbounds nuw i8, ptr %3, i64 8
  %42 = getelementptr inbounds nuw i8, ptr %3, i64 16
  br label %43

43:                                               ; preds = %.lr.ph41, %.loopexit
  %.040 = phi ptr [ %40, %.lr.ph41 ], [ %91, %.loopexit ]
  %44 = load ptr, ptr %.040, align 8
  %45 = getelementptr inbounds nuw i8, ptr %44, i64 48
  %46 = load ptr, ptr %45, align 8
  %.not26 = icmp eq ptr %46, null
  br i1 %.not26, label %89, label %47

47:                                               ; preds = %43
  %48 = tail call ptr @g_hash_table_get_values(ptr noundef nonnull %46) #7
  %49 = tail call ptr @g_list_sort(ptr noundef %48, ptr noundef nonnull @sort_loc) #7
  %50 = load i8, ptr @pattern, align 1, !range !5, !noundef !6
  %51 = trunc nuw i8 %50 to i1
  %52 = select i1 %51, ptr @.str.22, ptr @.str.23
  %53 = load ptr, ptr %44, align 8
  %54 = getelementptr inbounds nuw i8, ptr %44, i64 8
  %55 = load i64, ptr %54, align 8
  tail call void (ptr, ptr, ...) @g_string_append_printf(ptr noundef %3, ptr noundef nonnull @.str.24, ptr noundef %53, i64 noundef %55) #7
  %.not2737 = icmp eq ptr %49, null
  br i1 %.not2737, label %.loopexit, label %.lr.ph

.lr.ph:                                           ; preds = %47, %g_string_append_c_inline.exit28
  %.02138 = phi ptr [ %88, %g_string_append_c_inline.exit28 ], [ %49, %47 ]
  %56 = load ptr, ptr %.02138, align 8
  %57 = load i64, ptr %56, align 8
  tail call void (ptr, ptr, ...) @g_string_append_printf(ptr noundef %3, ptr noundef nonnull @.str.25, ptr noundef nonnull %52, i64 noundef %57) #7
  %58 = load i32, ptr @rw, align 4
  %59 = and i32 %58, -3
  %60 = icmp eq i32 %59, 1
  br i1 %60, label %61, label %66

61:                                               ; preds = %.lr.ph
  %62 = getelementptr inbounds nuw i8, ptr %56, i64 8
  %63 = load i64, ptr %62, align 8
  %64 = getelementptr inbounds nuw i8, ptr %56, i64 24
  %65 = load i64, ptr %64, align 8
  tail call void (ptr, ptr, ...) @g_string_append_printf(ptr noundef %3, ptr noundef nonnull @.str.18, i64 noundef %63, i64 noundef %65) #7
  %.pre.i = load i32, ptr @rw, align 4
  br label %66

66:                                               ; preds = %61, %.lr.ph
  %67 = phi i32 [ %.pre.i, %61 ], [ %58, %.lr.ph ]
  %68 = and i32 %67, -2
  %69 = icmp eq i32 %68, 2
  br i1 %69, label %70, label %fmt_iocount_record.exit

70:                                               ; preds = %66
  %71 = getelementptr inbounds nuw i8, ptr %56, i64 16
  %72 = load i64, ptr %71, align 8
  %73 = getelementptr inbounds nuw i8, ptr %56, i64 32
  %74 = load i64, ptr %73, align 8
  tail call void (ptr, ptr, ...) @g_string_append_printf(ptr noundef %3, ptr noundef nonnull @.str.18, i64 noundef %72, i64 noundef %74) #7
  br label %fmt_iocount_record.exit

fmt_iocount_record.exit:                          ; preds = %66, %70
  %75 = load i64, ptr %41, align 8
  %76 = add i64 %75, 1
  %77 = load i64, ptr %42, align 8
  %78 = icmp ult i64 %76, %77
  br i1 %78, label %79, label %85

79:                                               ; preds = %fmt_iocount_record.exit
  %80 = load ptr, ptr %3, align 8
  store i64 %76, ptr %41, align 8
  %81 = getelementptr inbounds nuw i8, ptr %80, i64 %75
  store i8 10, ptr %81, align 1
  %82 = load ptr, ptr %3, align 8
  %83 = load i64, ptr %41, align 8
  %84 = getelementptr inbounds nuw i8, ptr %82, i64 %83
  store i8 0, ptr %84, align 1
  br label %g_string_append_c_inline.exit28

85:                                               ; preds = %fmt_iocount_record.exit
  %86 = tail call ptr @g_string_insert_c(ptr noundef nonnull %3, i64 noundef -1, i8 noundef signext 10) #7
  br label %g_string_append_c_inline.exit28

g_string_append_c_inline.exit28:                  ; preds = %79, %85
  %87 = getelementptr inbounds nuw i8, ptr %.02138, i64 8
  %88 = load ptr, ptr %87, align 8
  %.not27 = icmp eq ptr %88, null
  br i1 %.not27, label %.loopexit, label %.lr.ph, !llvm.loop !8

89:                                               ; preds = %43
  tail call fastcc void @fmt_dev_record(ptr noundef %3, ptr noundef nonnull %44)
  br label %.loopexit

.loopexit:                                        ; preds = %g_string_append_c_inline.exit28, %47, %89
  %90 = getelementptr inbounds nuw i8, ptr %.040, i64 8
  %91 = load ptr, ptr %90, align 8
  %.not25 = icmp eq ptr %91, null
  br i1 %.not25, label %._crit_edge, label %43, !llvm.loop !9

._crit_edge:                                      ; preds = %.loopexit, %39
  tail call void @g_list_free(ptr noundef null) #7
  br label %glib_autoptr_cleanup_GString.exit

glib_autoptr_cleanup_GString.exit:                ; preds = %._crit_edge, %36, %g_string_append_c_inline.exit
  %92 = load ptr, ptr %3, align 8
  tail call void @qemu_plugin_outs(ptr noundef %92) #7
  %93 = tail call ptr @g_string_free(ptr noundef nonnull %3, i32 noundef 1) #7
  ret void
}